target datalayout = "e-m:e-p270:32:32-p271:32:32-p272:64:64-i64:64-i128:128-f80:128-n8:16:32:64-S128"
target triple = "x86_64-pc-linux-gnu"

%struct.pmix_tma = type { ptr, ptr, ptr, ptr, ptr, ptr, ptr, ptr }
%struct.timeval = type { i64, i64 }
%struct.pmix_disk_stats_t = type { ptr, i64, i64, i64, i64, i64, i64, i64, i64, i64, i64, i64 }
%struct.pmix_net_stats_t = type { ptr, i64, i64, i64, i64, i64, i64 }
%struct.pmix_node_stats_t = type { ptr, float, float, float, float, float, float, float, float, float, float, float, %struct.timeval, ptr, i64, ptr, i64 }

; Function Attrs: inlinehint nounwind uwtable
define internal void @pmix_bfrops_base_tma_net_stats_destruct(ptr noundef %0, ptr noundef %1) #8 {
  %3 = alloca ptr, align 8
  %4 = alloca ptr, align 8
  store ptr %0, ptr %3, align 8, !tbaa !8
  store ptr %1, ptr %4, align 8, !tbaa !66
  %5 = load ptr, ptr %3, align 8, !tbaa !8
  %6 = getelementptr inbounds nuw %struct.pmix_net_stats_t, ptr %5, i32 0, i32 0
  %7 = load ptr, ptr %6, align 8, !tbaa !177
  %8 = icmp ne ptr null, %7
  br i1 %8, label %9, label %16

9:                                                ; preds = %2
  %10 = load ptr, ptr %4, align 8, !tbaa !66
  %11 = load ptr, ptr %3, align 8, !tbaa !8
  %12 = getelementptr inbounds nuw %struct.pmix_net_stats_t, ptr %11, i32 0, i32 0
  %13 = load ptr, ptr %12, align 8, !tbaa !177
  call void @pmix_tma_free(ptr noundef %10, ptr noundef %13)
  %14 = load ptr, ptr %3, align 8, !tbaa !8
  %15 = getelementptr inbounds nuw %struct.pmix_net_stats_t, ptr %14, i32 0, i32 0
  store ptr null, ptr %15, align 8, !tbaa !177
  br label %16

16:                                               ; preds = %9, %2
  ret void
}

; Function Attrs: inlinehint nounwind uwtable
define internal void @pmix_bfrops_base_tma_disk_stats_destruct(ptr noundef %0, ptr noundef %1) #8 {
  %3 = alloca ptr, align 8
  %4 = alloca ptr, align 8
  store ptr %0, ptr %3, align 8, !tbaa !8
  store ptr %1, ptr %4, align 8, !tbaa !66
  %5 = load ptr, ptr %3, align 8, !tbaa !8
  %6 = getelementptr inbounds nuw %struct.pmix_disk_stats_t, ptr %5, i32 0, i32 0
  %7 = load ptr, ptr %6, align 8, !tbaa !175
  %8 = icmp ne ptr null, %7
  br i1 %8, label %9, label %16

9:                                                ; preds = %2
  %10 = load ptr, ptr %4, align 8, !tbaa !66
  %11 = load ptr, ptr %3, align 8, !tbaa !8
  %12 = getelementptr inbounds nuw %struct.pmix_disk_stats_t, ptr %11, i32 0, i32 0
  %13 = load ptr, ptr %12, align 8, !tbaa !175
  call void @pmix_tma_free(ptr noundef %10, ptr noundef %13)
  %14 = load ptr, ptr %3, align 8, !tbaa !8
  %15 = getelementptr inbounds nuw %struct.pmix_disk_stats_t, ptr %14, i32 0, i32 0
  store ptr null, ptr %15, align 8, !tbaa !175
  br label %16

16:                                               ; preds = %9, %2
  ret void
}

; Function Attrs: inlinehint nounwind uwtable
define internal void @pmix_bfrops_base_tma_net_stats_free(ptr noundef %0, i64 noundef %1, ptr noundef %2) #8 {
  %4 = alloca ptr, align 8
  %5 = alloca i64, align 8
  %6 = alloca ptr, align 8
  %7 = alloca i64, align 8
  store ptr %0, ptr %4, align 8, !tbaa !8
  store i64 %1, ptr %5, align 8, !tbaa !58
  store ptr %2, ptr %6, align 8, !tbaa !66
  %8 = load ptr, ptr %4, align 8, !tbaa !8
  %9 = icmp ne ptr null, %8
  br i1 %9, label %10, label %27

10:                                               ; preds = %3
  call void @llvm.lifetime.start.p0(i64 8, ptr %7) #15
  store i64 0, ptr %7, align 8, !tbaa !58
  br label %11

11:                                               ; preds = %21, %10
  %12 = load i64, ptr %7, align 8, !tbaa !58
  %13 = load i64, ptr %5, align 8, !tbaa !58
  %14 = icmp ult i64 %12, %13
  br i1 %14, label %16, label %15

15:                                               ; preds = %11
  call void @llvm.lifetime.end.p0(i64 8, ptr %7) #15
  br label %24

16:                                               ; preds = %11
  %17 = load ptr, ptr %4, align 8, !tbaa !8
  %18 = load i64, ptr %7, align 8, !tbaa !58
  %19 = getelementptr inbounds nuw %struct.pmix_net_stats_t, ptr %17, i64 %18
  %20 = load ptr, ptr %6, align 8, !tbaa !66
  call void @pmix_bfrops_base_tma_net_stats_destruct(ptr noundef %19, ptr noundef %20)
  br label %21

21:                                               ; preds = %16
  %22 = load i64, ptr %7, align 8, !tbaa !58
  %23 = add i64 %22, 1
  store i64 %23, ptr %7, align 8, !tbaa !58
  br label %11, !llvm.loop !238

24:                                               ; preds = %15
  %25 = load ptr, ptr %6, align 8, !tbaa !66
  %26 = load ptr, ptr %4, align 8, !tbaa !8
  call void @pmix_tma_free(ptr noundef %25, ptr noundef %26)
  br label %27

27:                                               ; preds = %24, %3
  ret void
}

; Function Attrs: inlinehint nounwind uwtable
define internal void @pmix_bfrops_base_tma_disk_stats_free(ptr noundef %0, i64 noundef %1, ptr noundef %2) #8 {
  %4 = alloca ptr, align 8
  %5 = alloca i64, align 8
  %6 = alloca ptr, align 8
  %7 = alloca i64, align 8
  store ptr %0, ptr %4, align 8, !tbaa !8
  store i64 %1, ptr %5, align 8, !tbaa !58
  store ptr %2, ptr %6, align 8, !tbaa !66
  %8 = load ptr, ptr %4, align 8, !tbaa !8
  %9 = icmp ne ptr null, %8
  br i1 %9, label %10, label %27

10:                                               ; preds = %3
  call void @llvm.lifetime.start.p0(i64 8, ptr %7) #15
  store i64 0, ptr %7, align 8, !tbaa !58
  br label %11

11:                                               ; preds = %21, %10
  %12 = load i64, ptr %7, align 8, !tbaa !58
  %13 = load i64, ptr %5, align 8, !tbaa !58
  %14 = icmp ult i64 %12, %13
  br i1 %14, label %16, label %15

15:                                               ; preds = %11
  call void @llvm.lifetime.end.p0(i64 8, ptr %7) #15
  br label %24

16:                                               ; preds = %11
  %17 = load ptr, ptr %4, align 8, !tbaa !8
  %18 = load i64, ptr %7, align 8, !tbaa !58
  %19 = getelementptr inbounds nuw %struct.pmix_disk_stats_t, ptr %17, i64 %18
  %20 = load ptr, ptr %6, align 8, !tbaa !66
  call void @pmix_bfrops_base_tma_disk_stats_destruct(ptr noundef %19, ptr noundef %20)
  br label %21

21:                                               ; preds = %16
  %22 = load i64, ptr %7, align 8, !tbaa !58
  %23 = add i64 %22, 1
  store i64 %23, ptr %7, align 8, !tbaa !58
  br label %11, !llvm.loop !237

24:                                               ; preds = %15
  %25 = load ptr, ptr %6, align 8, !tbaa !66
  %26 = load ptr, ptr %4, align 8, !tbaa !8
  call void @pmix_tma_free(ptr noundef %25, ptr noundef %26)
  br label %27

27:                                               ; preds = %24, %3
  ret void
}

; Function Attrs: inlinehint nounwind uwtable
define internal void @pmix_tma_free(ptr noundef %0, ptr noundef %1) #8 {
  %3 = alloca ptr, align 8
  %4 = alloca ptr, align 8
  store ptr %0, ptr %3, align 8, !tbaa !66
  store ptr %1, ptr %4, align 8, !tbaa !8
  %5 = load ptr, ptr %3, align 8, !tbaa !66
  %6 = icmp ne ptr null, %5
  br i1 %6, label %7, label %13

7:                                                ; preds = %2
  %8 = load ptr, ptr %3, align 8, !tbaa !66
  %9 = getelementptr inbounds nuw %struct.pmix_tma, ptr %8, i32 0, i32 5
  %10 = load ptr, ptr %9, align 8, !tbaa !143
  %11 = load ptr, ptr %3, align 8, !tbaa !66
  %12 = load ptr, ptr %4, align 8, !tbaa !8
  call void %10(ptr noundef %11, ptr noundef %12)
  br label %15

13:                                               ; preds = %2
  %14 = load ptr, ptr %4, align 8, !tbaa !8
  call void @free(ptr noundef %14) #15
  br label %15

15:                                               ; preds = %13, %7
  ret void
}

; Function Attrs: inlinehint nounwind uwtable
define internal void @pmix_bfrops_base_tma_node_stats_destruct(ptr noundef %0, ptr noundef %1) #8 {
  %3 = alloca ptr, align 8
  %4 = alloca ptr, align 8
  store ptr %0, ptr %3, align 8, !tbaa !8
  store ptr %1, ptr %4, align 8, !tbaa !66
  %5 = load ptr, ptr %3, align 8, !tbaa !8
  %6 = getelementptr inbounds nuw %struct.pmix_node_stats_t, ptr %5, i32 0, i32 0
  %7 = load ptr, ptr %6, align 8, !tbaa !179
  %8 = icmp ne ptr null, %7
  br i1 %8, label %9, label %16

9:                                                ; preds = %2
  %10 = load ptr, ptr %4, align 8, !tbaa !66
  %11 = load ptr, ptr %3, align 8, !tbaa !8
  %12 = getelementptr inbounds nuw %struct.pmix_node_stats_t, ptr %11, i32 0, i32 0
  %13 = load ptr, ptr %12, align 8, !tbaa !179
  call void @pmix_tma_free(ptr noundef %10, ptr noundef %13)
  %14 = load ptr, ptr %3, align 8, !tbaa !8
  %15 = getelementptr inbounds nuw %struct.pmix_node_stats_t, ptr %14, i32 0, i32 0
  store ptr null, ptr %15, align 8, !tbaa !179
  br label %16

16:                                               ; preds = %9, %2
  %17 = load ptr, ptr %3, align 8, !tbaa !8
  %18 = getelementptr inbounds nuw %struct.pmix_node_stats_t, ptr %17, i32 0, i32 13
  %19 = load ptr, ptr %18, align 8, !tbaa !182
  %20 = icmp ne ptr null, %19
  br i1 %20, label %21, label %33

21:                                               ; preds = %16
  %22 = load ptr, ptr %3, align 8, !tbaa !8
  %23 = getelementptr inbounds nuw %struct.pmix_node_stats_t, ptr %22, i32 0, i32 13
  %24 = load ptr, ptr %23, align 8, !tbaa !182
  %25 = load ptr, ptr %3, align 8, !tbaa !8
  %26 = getelementptr inbounds nuw %struct.pmix_node_stats_t, ptr %25, i32 0, i32 14
  %27 = load i64, ptr %26, align 8, !tbaa !181
  %28 = load ptr, ptr %4, align 8, !tbaa !66
  call void @pmix_bfrops_base_tma_disk_stats_free(ptr noundef %24, i64 noundef %27, ptr noundef %28)
  %29 = load ptr, ptr %3, align 8, !tbaa !8
  %30 = getelementptr inbounds nuw %struct.pmix_node_stats_t, ptr %29, i32 0, i32 13
  store ptr null, ptr %30, align 8, !tbaa !182
  %31 = load ptr, ptr %3, align 8, !tbaa !8
  %32 = getelementptr inbounds nuw %struct.pmix_node_stats_t, ptr %31, i32 0, i32 14
  store i64 0, ptr %32, align 8, !tbaa !181
  br label %33

33:                                               ; preds = %21, %16
  %34 = load ptr, ptr %3, align 8, !tbaa !8
  %35 = getelementptr inbounds nuw %struct.pmix_node_stats_t, ptr %34, i32 0, i32 15
  %36 = load ptr, ptr %35, align 8, !tbaa !185
  %37 = icmp ne ptr null, %36
  br i1 %37, label %38, label %50

38:                                               ; preds = %33
  %39 = load ptr, ptr %3, align 8, !tbaa !8
  %40 = getelementptr inbounds nuw %struct.pmix_node_stats_t, ptr %39, i32 0, i32 15
  %41 = load ptr, ptr %40, align 8, !tbaa !185
  %42 = load ptr, ptr %3, align 8, !tbaa !8
  %43 = getelementptr inbounds nuw %struct.pmix_node_stats_t, ptr %42, i32 0, i32 16
  %44 = load i64, ptr %43, align 8, !tbaa !184
  %45 = load ptr, ptr %4, align 8, !tbaa !66
  call void @pmix_bfrops_base_tma_net_stats_free(ptr noundef %41, i64 noundef %44, ptr noundef %45)
  %46 = load ptr, ptr %3, align 8, !tbaa !8
  %47 = getelementptr inbounds nuw %struct.pmix_node_stats_t, ptr %46, i32 0, i32 15
  store ptr null, ptr %47, align 8, !tbaa !185
  %48 = load ptr, ptr %3, align 8, !tbaa !8
  %49 = getelementptr inbounds nuw %struct.pmix_node_stats_t, ptr %48, i32 0, i32 16
  store i64 0, ptr %49, align 8, !tbaa !184
  br label %50

50:                                               ; preds = %38, %33
  ret void
}

; Function Attrs: inlinehint nounwind uwtable
define internal void @pmix_bfrops_base_tma_node_stats_free(ptr noundef %0, i64 noundef %1, ptr noundef %2) #8 {
  %4 = alloca ptr, align 8
  %5 = alloca i64, align 8
  %6 = alloca ptr, align 8
  %7 = alloca i64, align 8
  store ptr %0, ptr %4, align 8, !tbaa !8
  store i64 %1, ptr %5, align 8, !tbaa !58
  store ptr %2, ptr %6, align 8, !tbaa !66
  %8 = load ptr, ptr %4, align 8, !tbaa !8
  %9 = icmp ne ptr null, %8
  br i1 %9, label %10, label %27

10:                                               ; preds = %3
  call void @llvm.lifetime.start.p0(i64 8, ptr %7) #15
  store i64 0, ptr %7, align 8, !tbaa !58
  br label %11

11:                                               ; preds = %21, %10
  %12 = load i64, ptr %7, align 8, !tbaa !58
  %13 = load i64, ptr %5, align 8, !tbaa !58
  %14 = icmp ult i64 %12, %13
  br i1 %14, label %16, label %15

15:                                               ; preds = %11
  call void @llvm.lifetime.end.p0(i64 8, ptr %7) #15
  br label %24

16:                                               ; preds = %11
  %17 = load ptr, ptr %4, align 8, !tbaa !8
  %18 = load i64, ptr %7, align 8, !tbaa !58
  %19 = getelementptr inbounds nuw %struct.pmix_node_stats_t, ptr %17, i64 %18
  %20 = load ptr, ptr %6, align 8, !tbaa !66
  call void @pmix_bfrops_base_tma_node_stats_destruct(ptr noundef %19, ptr noundef %20)
  br label %21

21:                                               ; preds = %16
  %22 = load i64, ptr %7, align 8, !tbaa !58
  %23 = add i64 %22, 1
  store i64 %23, ptr %7, align 8, !tbaa !58
  br label %11, !llvm.loop !239

24:                                               ; preds = %15
  %25 = load ptr, ptr %6, align 8, !tbaa !66
  %26 = load ptr, ptr %4, align 8, !tbaa !8
  call void @pmix_tma_free(ptr noundef %25, ptr noundef %26)
  br label %27

27:                                               ; preds = %24, %3
  ret void
}