; Function Attrs: inlinehint nounwind uwtable
define internal fastcc void @pmix_bfrops_base_tma_node_stats_free(ptr noundef captures(address_is_null) %0, i64 noundef %1) unnamed_addr #8 {
  %.not = icmp eq ptr %0, null
  br i1 %.not, label %25, label %.preheader

.preheader:                                       ; preds = %2
  %.not2 = icmp eq i64 %1, 0
  br i1 %.not2, label %._crit_edge, label %.lr.ph

._crit_edge:                                      ; preds = %pmix_bfrops_base_tma_node_stats_destruct.exit, %.preheader
  tail call void @free(ptr noundef nonnull %0) #24
  br label %25

.lr.ph:                                           ; preds = %.preheader, %pmix_bfrops_base_tma_node_stats_destruct.exit
  %.01 = phi i64 [ %24, %pmix_bfrops_base_tma_node_stats_destruct.exit ], [ 0, %.preheader ]
  %3 = getelementptr inbounds nuw %struct.pmix_node_stats_t, ptr %0, i64 %.01
  %4 = load ptr, ptr %3, align 8, !tbaa !163
  %.not.i = icmp eq ptr %4, null
  br i1 %.not.i, label %6, label %5

5:                                                ; preds = %.lr.ph
  tail call void @free(ptr noundef nonnull %4) #24
  store ptr null, ptr %3, align 8, !tbaa !163
  br label %6

6:                                                ; preds = %5, %.lr.ph
  %7 = getelementptr inbounds nuw i8, ptr %3, i64 72
  %8 = load ptr, ptr %7, align 8, !tbaa !167
  %.not18.i = icmp eq ptr %8, null
  br i1 %.not18.i, label %15, label %.preheader.i.i

.preheader.i.i:                                   ; preds = %6
  %9 = getelementptr inbounds nuw i8, ptr %3, i64 80
  %10 = load i64, ptr %9, align 8, !tbaa !165
  %.not2.i.i = icmp eq i64 %10, 0
  br i1 %.not2.i.i, label %pmix_bfrops_base_tma_disk_stats_free.exit.i, label %.lr.ph.i.i

.lr.ph.i.i:                                       ; preds = %.preheader.i.i, %pmix_bfrops_base_tma_disk_stats_destruct.exit.i.i
  %.01.i.i = phi i64 [ %14, %pmix_bfrops_base_tma_disk_stats_destruct.exit.i.i ], [ 0, %.preheader.i.i ]
  %11 = getelementptr inbounds nuw %struct.pmix_disk_stats_t, ptr %8, i64 %.01.i.i
  %12 = load ptr, ptr %11, align 8, !tbaa !108
  %.not.i.i.i = icmp eq ptr %12, null
  br i1 %.not.i.i.i, label %pmix_bfrops_base_tma_disk_stats_destruct.exit.i.i, label %13

13:                                               ; preds = %.lr.ph.i.i
  tail call void @free(ptr noundef nonnull %12) #24
  store ptr null, ptr %11, align 8, !tbaa !108
  br label %pmix_bfrops_base_tma_disk_stats_destruct.exit.i.i

pmix_bfrops_base_tma_disk_stats_destruct.exit.i.i: ; preds = %13, %.lr.ph.i.i
  %14 = add nuw i64 %.01.i.i, 1
  %exitcond.not.i.i = icmp eq i64 %14, %10
  br i1 %exitcond.not.i.i, label %pmix_bfrops_base_tma_disk_stats_free.exit.i, label %.lr.ph.i.i, !llvm.loop !110

pmix_bfrops_base_tma_disk_stats_free.exit.i:      ; preds = %pmix_bfrops_base_tma_disk_stats_destruct.exit.i.i, %.preheader.i.i
  tail call void @free(ptr noundef nonnull %8) #24
  tail call void @llvm.memset.p0.i64(ptr noundef nonnull align 8 dereferenceable(16) %7, i8 0, i64 16, i1 false)
  br label %15

15:                                               ; preds = %pmix_bfrops_base_tma_disk_stats_free.exit.i, %6
  %16 = getelementptr inbounds nuw i8, ptr %3, i64 88
  %17 = load ptr, ptr %16, align 8, !tbaa !169
  %.not19.i = icmp eq ptr %17, null
  br i1 %.not19.i, label %pmix_bfrops_base_tma_node_stats_destruct.exit, label %.preheader.i21.i

.preheader.i21.i:                                 ; preds = %15
  %18 = getelementptr inbounds nuw i8, ptr %3, i64 96
  %19 = load i64, ptr %18, align 8, !tbaa !166
  %.not2.i22.i = icmp eq i64 %19, 0
  br i1 %.not2.i22.i, label %pmix_bfrops_base_tma_net_stats_free.exit.i, label %.lr.ph.i23.i

.lr.ph.i23.i:                                     ; preds = %.preheader.i21.i, %pmix_bfrops_base_tma_net_stats_destruct.exit.i.i
  %.01.i24.i = phi i64 [ %23, %pmix_bfrops_base_tma_net_stats_destruct.exit.i.i ], [ 0, %.preheader.i21.i ]
  %20 = getelementptr inbounds nuw %struct.pmix_net_stats_t, ptr %17, i64 %.01.i24.i
  %21 = load ptr, ptr %20, align 8, !tbaa !111
  %.not.i.i25.i = icmp eq ptr %21, null
  br i1 %.not.i.i25.i, label %pmix_bfrops_base_tma_net_stats_destruct.exit.i.i, label %22

22:                                               ; preds = %.lr.ph.i23.i
  tail call void @free(ptr noundef nonnull %21) #24
  store ptr null, ptr %20, align 8, !tbaa !111
  br label %pmix_bfrops_base_tma_net_stats_destruct.exit.i.i

pmix_bfrops_base_tma_net_stats_destruct.exit.i.i: ; preds = %22, %.lr.ph.i23.i
  %23 = add nuw i64 %.01.i24.i, 1
  %exitcond.not.i26.i = icmp eq i64 %23, %19
  br i1 %exitcond.not.i26.i, label %pmix_bfrops_base_tma_net_stats_free.exit.i, label %.lr.ph.i23.i, !llvm.loop !113

pmix_bfrops_base_tma_net_stats_free.exit.i:       ; preds = %pmix_bfrops_base_tma_net_stats_destruct.exit.i.i, %.preheader.i21.i
  tail call void @free(ptr noundef nonnull %17) #24
  tail call void @llvm.memset.p0.i64(ptr noundef nonnull align 8 dereferenceable(16) %16, i8 0, i64 16, i1 false)
  br label %pmix_bfrops_base_tma_node_stats_destruct.exit

pmix_bfrops_base_tma_node_stats_destruct.exit:    ; preds = %15, %pmix_bfrops_base_tma_net_stats_free.exit.i
  %24 = add nuw i64 %.01, 1
  %exitcond.not = icmp eq i64 %24, %1
  br i1 %exitcond.not, label %._crit_edge, label %.lr.ph, !llvm.loop !196

25:                                               ; preds = %._crit_edge, %2
  ret void
}